; Function Attrs: mustprogress nofree norecurse nosync nounwind willreturn memory(read, inaccessiblemem: none) uwtable
define zeroext i16 @dtls1_get_epoch(ptr noundef readonly captures(none) %0, i32 noundef %1) local_unnamed_addr #5 {
  %3 = getelementptr inbounds nuw i8, ptr %0, i64 3296
  %4 = load ptr, ptr %3, align 8, !tbaa !87
  %5 = shl i32 %1, 1
  %6 = and i32 %5, 2
  %7 = xor i32 %6, 2
  %.0.in.idx = zext nneg i32 %7 to i64
  %.0.in = getelementptr inbounds nuw i8, ptr %4, i64 %.0.in.idx
  %.0 = load i16, ptr %.0.in, align 2, !tbaa !94
  ret i16 %.0
}